target datalayout = "e-m:e-p270:32:32-p271:32:32-p272:64:64-i64:64-i128:128-f80:128-n8:16:32:64-S128"
target triple = "x86_64-pc-linux-gnu"

%struct.rb_code_location_struct = type { %struct.rb_code_position_struct, %struct.rb_code_position_struct }
%struct.rb_code_position_struct = type { i32, i32 }
%struct.rb_iseq_struct = type { i64, i64, ptr, %union.anon.13 }
%union.anon.13 = type { %struct.anon.14 }
%struct.anon.14 = type { i64, i32 }
%struct.rb_iseq_constant_body = type { i32, i32, ptr, %struct.anon.16, %struct.rb_iseq_location_struct, %struct.iseq_insn_info, ptr, ptr, ptr, ptr, ptr, ptr, %struct.anon.17, i32, i32, i32, i32, i32, i32, i32, i32, i8, %union.anon.18, ptr, ptr, ptr, i64, ptr, i64, ptr, i64 }
%struct.anon.16 = type { %struct.anon, i32, i32, i32, i32, i32, i32, i32, ptr, ptr }
%struct.anon = type { i16, [2 x i8] }
%struct.rb_iseq_location_struct = type { i64, i64, i64, i32, i32, %struct.rb_code_location_struct }
%struct.iseq_insn_info = type { ptr, ptr, i32, ptr }
%struct.anon.17 = type { i64, i64, i64, i64, ptr }
%union.anon.18 = type { ptr }
%struct.rb_compile_option_struct = type { i16, i32 }
%struct.pm_scope_node = type { %struct.pm_node, ptr, ptr, ptr, ptr, %struct.pm_constant_id_list_t, ptr, ptr, ptr, ptr, i32, ptr, ptr, i32, ptr }
%struct.pm_node = type { i16, i16, i32, %struct.pm_location_t }
%struct.pm_location_t = type { ptr, ptr }
%struct.pm_constant_id_list_t = type { i64, i64, ptr }
%struct.pm_parser = type { i32, i32, i32, i32, i32, i32, i32, %struct.anon.22, ptr, ptr, %struct.pm_token_t, %struct.pm_token_t, ptr, ptr, %struct.pm_list_t, %struct.pm_list_t, %struct.pm_location_t, %struct.pm_list_t, %struct.pm_list_t, ptr, ptr, ptr, ptr, ptr, ptr, ptr, %struct.pm_string_t, %struct.pm_constant_pool_t, %struct.pm_newline_list_t, i16, %struct.pm_string_t, i32, ptr, ptr, i32, i8, i8, i8, i8, i8, i8, i8, i8, i8, i8, i8, i8, i8 }
%struct.anon.22 = type { ptr, [4 x %struct.pm_lex_mode], i64 }
%struct.pm_lex_mode = type { i32, %union.anon.23, ptr }
%union.anon.23 = type { %struct.anon.27 }
%struct.anon.27 = type { %struct.pm_heredoc_lex_mode_t, ptr, ptr, i8 }
%struct.pm_heredoc_lex_mode_t = type { ptr, i64, i32, i32 }
%struct.pm_token_t = type { i32, ptr, ptr }
%struct.pm_list_t = type { i64, ptr, ptr }
%struct.pm_constant_pool_t = type { ptr, ptr, i32, i32 }
%struct.pm_newline_list_t = type { ptr, i64, i64, ptr }
%struct.pm_string_t = type { ptr, i64, i32 }
%struct.pm_line_column_t = type { i32, i32 }
%struct.pm_iseq_new_with_opt_data = type { ptr, ptr }

@COMPILE_OPTION_DEFAULT = internal global { i8, i8, [2 x i8], i32 } { i8 -37, i8 2, [2 x i8] zeroinitializer, i32 0 }, align 4

; Function Attrs: nounwind sspstrong uwtable
define dso_local ptr @rb_iseq_constant_body_alloc() #0 {
  %1 = alloca ptr, align 8
  call void @llvm.lifetime.start.p0(i64 8, ptr %1) #24
  %2 = call noalias nonnull ptr @ruby_xcalloc(i64 noundef 1, i64 noundef 344) #27
  store ptr %2, ptr %1, align 8, !tbaa !16
  %3 = load ptr, ptr %1, align 8, !tbaa !16
  call void @llvm.lifetime.end.p0(i64 8, ptr %1) #24
  ret ptr %3
}

; Function Attrs: inlinehint nounwind sspstrong uwtable
define internal ptr @iseq_imemo_alloc() #5 {
  %1 = call i64 @rb_imemo_new(i32 noundef 7, i64 noundef 0, i64 noundef 40)
  %2 = inttoptr i64 %1 to ptr
  ret ptr %2
}

; Function Attrs: nounwind sspstrong uwtable
define internal ptr @iseq_alloc() #0 {
  %1 = alloca ptr, align 8
  call void @llvm.lifetime.start.p0(i64 8, ptr %1) #24
  %2 = call ptr @iseq_imemo_alloc()
  store ptr %2, ptr %1, align 8, !tbaa !7
  %3 = call ptr @rb_iseq_constant_body_alloc()
  %4 = load ptr, ptr %1, align 8, !tbaa !7
  %5 = getelementptr inbounds nuw %struct.rb_iseq_struct, ptr %4, i32 0, i32 2
  store ptr %3, ptr %5, align 8, !tbaa !12
  %6 = load ptr, ptr %1, align 8, !tbaa !7
  call void @llvm.lifetime.end.p0(i64 8, ptr %1) #24
  ret ptr %6
}

; Function Attrs: nounwind sspstrong uwtable
define hidden ptr @pm_iseq_new_with_opt(ptr noundef %0, i64 noundef %1, i64 noundef %2, i64 noundef %3, i32 noundef %4, ptr noundef %5, i32 noundef %6, i32 noundef %7, ptr noundef %8, ptr noundef %9) #0 {
  %11 = alloca ptr, align 8
  %12 = alloca ptr, align 8
  %13 = alloca i64, align 8
  %14 = alloca i64, align 8
  %15 = alloca i64, align 8
  %16 = alloca i32, align 4
  %17 = alloca ptr, align 8
  %18 = alloca i32, align 4
  %19 = alloca i32, align 4
  %20 = alloca ptr, align 8
  %21 = alloca ptr, align 8
  %22 = alloca ptr, align 8
  %23 = alloca %struct.rb_compile_option_struct, align 4
  %24 = alloca ptr, align 8
  %25 = alloca i32, align 4
  %26 = alloca %struct.pm_line_column_t, align 4
  %27 = alloca %struct.pm_line_column_t, align 4
  %28 = alloca %struct.rb_code_location_struct, align 4
  %29 = alloca %struct.pm_iseq_new_with_opt_data, align 8
  %30 = alloca i32, align 4
  store ptr %0, ptr %12, align 8, !tbaa !178
  store i64 %1, ptr %13, align 8, !tbaa !17
  store i64 %2, ptr %14, align 8, !tbaa !17
  store i64 %3, ptr %15, align 8, !tbaa !17
  store i32 %4, ptr %16, align 4, !tbaa !56
  store ptr %5, ptr %17, align 8, !tbaa !7
  store i32 %6, ptr %18, align 4, !tbaa !56
  store i32 %7, ptr %19, align 4, !tbaa !56
  store ptr %8, ptr %20, align 8, !tbaa !160
  store ptr %9, ptr %21, align 8, !tbaa !139
  call void @llvm.lifetime.start.p0(i64 8, ptr %22) #24
  %31 = call ptr @iseq_alloc()
  store ptr %31, ptr %22, align 8, !tbaa !7
  %32 = load ptr, ptr %22, align 8, !tbaa !7
  %33 = getelementptr inbounds nuw %struct.rb_iseq_struct, ptr %32, i32 0, i32 2
  %34 = load ptr, ptr %33, align 8, !tbaa !12
  %35 = getelementptr inbounds nuw %struct.rb_iseq_constant_body, ptr %34, i32 0, i32 21
  store i8 1, ptr %35, align 8, !tbaa !204
  call void @llvm.lifetime.start.p0(i64 8, ptr %23) #24
  %36 = load ptr, ptr %20, align 8, !tbaa !160
  %37 = icmp ne ptr %36, null
  br i1 %37, label %39, label %38

38:                                               ; preds = %10
  store ptr @COMPILE_OPTION_DEFAULT, ptr %20, align 8, !tbaa !160
  br label %39

39:                                               ; preds = %38, %10
  %40 = load ptr, ptr %20, align 8, !tbaa !160
  call void @llvm.memcpy.p0.p0.i64(ptr align 4 %23, ptr align 4 %40, i64 8, i1 false), !tbaa.struct !169
  %41 = load ptr, ptr %12, align 8, !tbaa !178
  %42 = getelementptr inbounds nuw %struct.pm_scope_node, ptr %41, i32 0, i32 13
  %43 = load i32, ptr %42, align 8, !tbaa !205
  %44 = icmp slt i32 %43, 0
  br i1 %44, label %45, label %46

45:                                               ; preds = %39
  br label %52

46:                                               ; preds = %39
  %47 = load ptr, ptr %12, align 8, !tbaa !178
  %48 = getelementptr inbounds nuw %struct.pm_scope_node, ptr %47, i32 0, i32 13
  %49 = load i32, ptr %48, align 8, !tbaa !205
  %50 = icmp sgt i32 %49, 0
  %51 = zext i1 %50 to i32
  br label %52

52:                                               ; preds = %46, %45
  %53 = phi i32 [ 0, %45 ], [ %51, %46 ]
  %54 = trunc i32 %53 to i16
  %55 = load i16, ptr %23, align 4
  %56 = and i16 %54, 1
  %57 = shl i16 %56, 9
  %58 = and i16 %55, -513
  %59 = or i16 %58, %57
  store i16 %59, ptr %23, align 4
  store ptr %23, ptr %20, align 8, !tbaa !160
  call void @llvm.lifetime.start.p0(i64 8, ptr %24) #24
  %60 = load ptr, ptr %12, align 8, !tbaa !178
  %61 = getelementptr inbounds nuw %struct.pm_scope_node, ptr %60, i32 0, i32 0
  %62 = getelementptr inbounds nuw %struct.pm_node, ptr %61, i32 0, i32 3
  store ptr %62, ptr %24, align 8, !tbaa !104
  call void @llvm.lifetime.start.p0(i64 4, ptr %25) #24
  %63 = load ptr, ptr %12, align 8, !tbaa !178
  %64 = getelementptr inbounds nuw %struct.pm_scope_node, ptr %63, i32 0, i32 6
  %65 = load ptr, ptr %64, align 8, !tbaa !180
  %66 = getelementptr inbounds nuw %struct.pm_parser, ptr %65, i32 0, i32 31
  %67 = load i32, ptr %66, align 8, !tbaa !206
  store i32 %67, ptr %25, align 4, !tbaa !56
  call void @llvm.lifetime.start.p0(i64 8, ptr %26) #24
  %68 = load ptr, ptr %12, align 8, !tbaa !178
  %69 = getelementptr inbounds nuw %struct.pm_scope_node, ptr %68, i32 0, i32 6
  %70 = load ptr, ptr %69, align 8, !tbaa !180
  %71 = getelementptr inbounds nuw %struct.pm_parser, ptr %70, i32 0, i32 28
  %72 = load ptr, ptr %24, align 8, !tbaa !104
  %73 = getelementptr inbounds nuw %struct.pm_location_t, ptr %72, i32 0, i32 0
  %74 = load ptr, ptr %73, align 8, !tbaa !207
  %75 = load i32, ptr %25, align 4, !tbaa !56
  %76 = call i64 @pm_newline_list_line_column(ptr noundef %71, ptr noundef %74, i32 noundef %75)
  store i64 %76, ptr %26, align 4
  call void @llvm.lifetime.start.p0(i64 8, ptr %27) #24
  %77 = load ptr, ptr %12, align 8, !tbaa !178
  %78 = getelementptr inbounds nuw %struct.pm_scope_node, ptr %77, i32 0, i32 6
  %79 = load ptr, ptr %78, align 8, !tbaa !180
  %80 = getelementptr inbounds nuw %struct.pm_parser, ptr %79, i32 0, i32 28
  %81 = load ptr, ptr %24, align 8, !tbaa !104
  %82 = getelementptr inbounds nuw %struct.pm_location_t, ptr %81, i32 0, i32 1
  %83 = load ptr, ptr %82, align 8, !tbaa !208
  %84 = load i32, ptr %25, align 4, !tbaa !56
  %85 = call i64 @pm_newline_list_line_column(ptr noundef %80, ptr noundef %83, i32 noundef %84)
  store i64 %85, ptr %27, align 4
  call void @llvm.lifetime.start.p0(i64 16, ptr %28) #24
  %86 = getelementptr inbounds nuw %struct.rb_code_location_struct, ptr %28, i32 0, i32 0
  %87 = getelementptr inbounds nuw %struct.rb_code_position_struct, ptr %86, i32 0, i32 0
  %88 = getelementptr inbounds nuw %struct.pm_line_column_t, ptr %26, i32 0, i32 0
  %89 = load i32, ptr %88, align 4, !tbaa !209
  store i32 %89, ptr %87, align 4, !tbaa !211
  %90 = getelementptr inbounds nuw %struct.rb_code_position_struct, ptr %86, i32 0, i32 1
  %91 = getelementptr inbounds nuw %struct.pm_line_column_t, ptr %26, i32 0, i32 1
  %92 = load i32, ptr %91, align 4, !tbaa !212
  store i32 %92, ptr %90, align 4, !tbaa !213
  %93 = getelementptr inbounds nuw %struct.rb_code_location_struct, ptr %28, i32 0, i32 1
  %94 = getelementptr inbounds nuw %struct.rb_code_position_struct, ptr %93, i32 0, i32 0
  %95 = getelementptr inbounds nuw %struct.pm_line_column_t, ptr %27, i32 0, i32 0
  %96 = load i32, ptr %95, align 4, !tbaa !209
  store i32 %96, ptr %94, align 4, !tbaa !211
  %97 = getelementptr inbounds nuw %struct.rb_code_position_struct, ptr %93, i32 0, i32 1
  %98 = getelementptr inbounds nuw %struct.pm_line_column_t, ptr %27, i32 0, i32 1
  %99 = load i32, ptr %98, align 4, !tbaa !212
  store i32 %99, ptr %97, align 4, !tbaa !213
  %100 = load ptr, ptr %22, align 8, !tbaa !7
  %101 = load i64, ptr %13, align 8, !tbaa !17
  %102 = load i64, ptr %14, align 8, !tbaa !17
  %103 = load i64, ptr %15, align 8, !tbaa !17
  %104 = load i32, ptr %16, align 4, !tbaa !56
  %105 = load ptr, ptr %12, align 8, !tbaa !178
  %106 = getelementptr inbounds nuw %struct.pm_scope_node, ptr %105, i32 0, i32 2
  %107 = load ptr, ptr %106, align 8, !tbaa !214
  %108 = getelementptr inbounds nuw %struct.pm_node, ptr %107, i32 0, i32 2
  %109 = load i32, ptr %108, align 4, !tbaa !215
  %110 = load ptr, ptr %17, align 8, !tbaa !7
  %111 = load i32, ptr %18, align 4, !tbaa !56
  %112 = load i32, ptr %19, align 4, !tbaa !56
  %113 = load ptr, ptr %12, align 8, !tbaa !178
  %114 = getelementptr inbounds nuw %struct.pm_scope_node, ptr %113, i32 0, i32 8
  %115 = load ptr, ptr %114, align 8, !tbaa !216
  %116 = icmp eq ptr %115, null
  br i1 %116, label %117, label %118

117:                                              ; preds = %52
  br label %123

118:                                              ; preds = %52
  %119 = load ptr, ptr %12, align 8, !tbaa !178
  %120 = getelementptr inbounds nuw %struct.pm_scope_node, ptr %119, i32 0, i32 8
  %121 = load ptr, ptr %120, align 8, !tbaa !216
  %122 = load i64, ptr %121, align 8, !tbaa !17
  br label %123

123:                                              ; preds = %118, %117
  %124 = phi i64 [ 4, %117 ], [ %122, %118 ]
  %125 = load ptr, ptr %20, align 8, !tbaa !160
  %126 = call i64 @prepare_iseq_build(ptr noundef %100, i64 noundef %101, i64 noundef %102, i64 noundef %103, i32 noundef %104, ptr noundef %28, i32 noundef %109, ptr noundef %110, i32 noundef %111, i32 noundef %112, i64 noundef %124, ptr noundef %125)
  call void @llvm.lifetime.start.p0(i64 16, ptr %29) #24
  %127 = getelementptr inbounds nuw %struct.pm_iseq_new_with_opt_data, ptr %29, i32 0, i32 0
  %128 = load ptr, ptr %22, align 8, !tbaa !7
  store ptr %128, ptr %127, align 8, !tbaa !217
  %129 = getelementptr inbounds nuw %struct.pm_iseq_new_with_opt_data, ptr %29, i32 0, i32 1
  %130 = load ptr, ptr %12, align 8, !tbaa !178
  store ptr %130, ptr %129, align 8, !tbaa !219
  %131 = ptrtoint ptr %29 to i64
  %132 = load ptr, ptr %21, align 8, !tbaa !139
  %133 = call i64 @rb_protect(ptr noundef @pm_iseq_new_with_opt_try, i64 noundef %131, ptr noundef %132)
  %134 = load ptr, ptr %21, align 8, !tbaa !139
  %135 = load i32, ptr %134, align 4, !tbaa !56
  %136 = icmp ne i32 %135, 0
  br i1 %136, label %137, label %138

137:                                              ; preds = %123
  store ptr null, ptr %11, align 8
  store i32 1, ptr %30, align 4
  br label %141

138:                                              ; preds = %123
  %139 = load ptr, ptr %22, align 8, !tbaa !7
  %140 = call ptr @iseq_translate(ptr noundef %139)
  store ptr %140, ptr %11, align 8
  store i32 1, ptr %30, align 4
  br label %141

141:                                              ; preds = %138, %137
  call void @llvm.lifetime.end.p0(i64 16, ptr %29) #24
  call void @llvm.lifetime.end.p0(i64 16, ptr %28) #24
  call void @llvm.lifetime.end.p0(i64 8, ptr %27) #24
  call void @llvm.lifetime.end.p0(i64 8, ptr %26) #24
  call void @llvm.lifetime.end.p0(i64 4, ptr %25) #24
  call void @llvm.lifetime.end.p0(i64 8, ptr %24) #24
  call void @llvm.lifetime.end.p0(i64 8, ptr %23) #24
  call void @llvm.lifetime.end.p0(i64 8, ptr %22) #24
  %142 = load ptr, ptr %11, align 8
  ret ptr %142
}