; Function Attrs: nounwind sspstrong uwtable
define hidden ptr @pm_iseq_new_with_opt(ptr noundef %0, i64 noundef %1, i64 noundef %2, i64 noundef %3, i32 noundef %4, ptr noundef %5, i32 noundef %6, i32 noundef %7, ptr noundef readonly captures(address_is_null) %8, ptr noundef %9) local_unnamed_addr #0 {
  %11 = alloca %struct.rb_compile_option_struct, align 8
  %12 = alloca %struct.rb_code_location_struct, align 4
  %13 = alloca %struct.pm_iseq_new_with_opt_data, align 8
  %14 = tail call i64 @rb_imemo_new(i32 noundef 7, i64 noundef 0, i64 noundef 40) #20
  %15 = inttoptr i64 %14 to ptr
  %16 = tail call noalias noundef nonnull dereferenceable(344) ptr @ruby_xcalloc(i64 noundef 1, i64 noundef 344) #22
  %17 = getelementptr inbounds nuw i8, ptr %15, i64 16
  store ptr %16, ptr %17, align 8, !tbaa !7
  %18 = getelementptr inbounds nuw i8, ptr %16, i64 264
  store i8 1, ptr %18, align 8, !tbaa !208
  call void @llvm.lifetime.start.p0(i64 8, ptr nonnull %11) #20
  %.not = icmp eq ptr %8, null
  %spec.store.select = select i1 %.not, ptr @COMPILE_OPTION_DEFAULT, ptr %8
  %19 = load i64, ptr %spec.store.select, align 4
  store i64 %19, ptr %11, align 8
  %20 = getelementptr inbounds nuw i8, ptr %0, i64 136
  %21 = load i32, ptr %20, align 8, !tbaa !209
  %22 = icmp slt i32 %21, 1
  %23 = select i1 %22, i16 0, i16 512
  %24 = trunc i64 %19 to i16
  %25 = and i16 %24, -513
  %26 = or disjoint i16 %25, %23
  store i16 %26, ptr %11, align 8
  %27 = getelementptr inbounds nuw i8, ptr %0, i64 8
  %28 = getelementptr inbounds nuw i8, ptr %0, i64 80
  %29 = load ptr, ptr %28, align 8, !tbaa !183
  %30 = getelementptr inbounds nuw i8, ptr %29, i64 664
  %31 = load i32, ptr %30, align 8, !tbaa !210
  %32 = getelementptr inbounds nuw i8, ptr %29, i64 600
  %33 = load ptr, ptr %27, align 8, !tbaa !211
  %34 = tail call i64 @pm_newline_list_line_column(ptr noundef nonnull %32, ptr noundef %33, i32 noundef %31) #20
  %.sroa.01.0.extract.trunc = trunc i64 %34 to i32
  %.sroa.42.0.extract.shift = lshr i64 %34, 32
  %.sroa.42.0.extract.trunc = trunc nuw i64 %.sroa.42.0.extract.shift to i32
  %35 = load ptr, ptr %28, align 8, !tbaa !183
  %36 = getelementptr inbounds nuw i8, ptr %35, i64 600
  %37 = getelementptr inbounds nuw i8, ptr %0, i64 16
  %38 = load ptr, ptr %37, align 8, !tbaa !212
  %39 = tail call i64 @pm_newline_list_line_column(ptr noundef nonnull %36, ptr noundef %38, i32 noundef %31) #20
  %.sroa.0.0.extract.trunc = trunc i64 %39 to i32
  %.sroa.4.0.extract.shift = lshr i64 %39, 32
  %.sroa.4.0.extract.trunc = trunc nuw i64 %.sroa.4.0.extract.shift to i32
  call void @llvm.lifetime.start.p0(i64 16, ptr nonnull %12) #20
  store i32 %.sroa.01.0.extract.trunc, ptr %12, align 4, !tbaa !213
  %40 = getelementptr inbounds nuw i8, ptr %12, i64 4
  store i32 %.sroa.42.0.extract.trunc, ptr %40, align 4, !tbaa !214
  %41 = getelementptr inbounds nuw i8, ptr %12, i64 8
  store i32 %.sroa.0.0.extract.trunc, ptr %41, align 4, !tbaa !213
  %42 = getelementptr inbounds nuw i8, ptr %12, i64 12
  store i32 %.sroa.4.0.extract.trunc, ptr %42, align 4, !tbaa !214
  %43 = getelementptr inbounds nuw i8, ptr %0, i64 32
  %44 = load ptr, ptr %43, align 8, !tbaa !215
  %45 = getelementptr inbounds nuw i8, ptr %44, i64 4
  %46 = load i32, ptr %45, align 4, !tbaa !216
  %47 = getelementptr inbounds nuw i8, ptr %0, i64 96
  %48 = load ptr, ptr %47, align 8, !tbaa !217
  %49 = icmp eq ptr %48, null
  br i1 %49, label %52, label %50

50:                                               ; preds = %10
  %51 = load i64, ptr %48, align 8, !tbaa !42
  br label %52

52:                                               ; preds = %10, %50
  %53 = phi i64 [ %51, %50 ], [ 4, %10 ]
  call fastcc void @prepare_iseq_build(ptr noundef nonnull %15, i64 noundef %1, i64 noundef %2, i64 noundef %3, i32 noundef %4, ptr noundef nonnull %12, i32 noundef %46, ptr noundef %5, i32 noundef %6, i32 noundef %7, i64 noundef %53, ptr noundef nonnull %11)
  call void @llvm.lifetime.start.p0(i64 16, ptr nonnull %13) #20
  store ptr %15, ptr %13, align 8, !tbaa !218
  %54 = getelementptr inbounds nuw i8, ptr %13, i64 8
  store ptr %0, ptr %54, align 8, !tbaa !220
  %55 = ptrtoint ptr %13 to i64
  %56 = call i64 @rb_protect(ptr noundef nonnull @pm_iseq_new_with_opt_try, i64 noundef %55, ptr noundef %9) #20
  %57 = load i32, ptr %9, align 4, !tbaa !136
  %.not35 = icmp eq i32 %57, 0
  br i1 %.not35, label %58, label %60

58:                                               ; preds = %52
  %59 = call fastcc ptr @iseq_translate(ptr noundef nonnull %15)
  br label %60

60:                                               ; preds = %52, %58
  %.0 = phi ptr [ %59, %58 ], [ null, %52 ]
  call void @llvm.lifetime.end.p0(i64 16, ptr nonnull %13) #20
  call void @llvm.lifetime.end.p0(i64 16, ptr nonnull %12) #20
  call void @llvm.lifetime.end.p0(i64 8, ptr nonnull %11) #20
  ret ptr %.0
}